target datalayout = "e-m:e-p270:32:32-p271:32:32-p272:64:64-i64:64-i128:128-f80:128-n8:16:32:64-S128"
target triple = "x86_64-pc-linux-gnu"

@.str.20 = private unnamed_addr constant [32 x i8] c"archive_match_include_file_time\00", align 1
@.str.35 = private unnamed_addr constant [18 x i8] c"Invalid time flag\00", align 1
@.str.36 = private unnamed_addr constant [13 x i8] c"No time flag\00", align 1
@.str.37 = private unnamed_addr constant [24 x i8] c"Invalid comparison flag\00", align 1
@.str.38 = private unnamed_addr constant [19 x i8] c"No comparison flag\00", align 1

; Function Attrs: nounwind uwtable
define internal i32 @validate_time_flag(ptr noundef %0, i32 noundef %1, ptr noundef %2) #0 {
  %4 = alloca i32, align 4
  %5 = alloca ptr, align 8
  %6 = alloca i32, align 4
  %7 = alloca ptr, align 8
  %8 = alloca i32, align 4
  %9 = alloca i32, align 4
  store ptr %0, ptr %5, align 8, !tbaa !41
  store i32 %1, ptr %6, align 4, !tbaa !43
  store ptr %2, ptr %7, align 8, !tbaa !94
  br label %10

10:                                               ; preds = %3
  call void @llvm.lifetime.start.p0(i64 4, ptr %8) #9
  %11 = load ptr, ptr %5, align 8, !tbaa !41
  %12 = load ptr, ptr %7, align 8, !tbaa !94
  %13 = call i32 @__archive_check_magic(ptr noundef %11, i32 noundef 212668873, i32 noundef 1, ptr noundef %12)
  store i32 %13, ptr %8, align 4, !tbaa !43
  %14 = load i32, ptr %8, align 4, !tbaa !43
  %15 = icmp eq i32 %14, -30
  br i1 %15, label %16, label %17

16:                                               ; preds = %10
  store i32 -30, ptr %4, align 4
  store i32 1, ptr %9, align 4
  br label %18

17:                                               ; preds = %10
  store i32 0, ptr %9, align 4
  br label %18

18:                                               ; preds = %17, %16
  call void @llvm.lifetime.end.p0(i64 4, ptr %8) #9
  %19 = load i32, ptr %9, align 4
  switch i32 %19, label %48 [
    i32 0, label %20
    i32 1, label %46
  ]

20:                                               ; preds = %18
  br label %21

21:                                               ; preds = %20
  %22 = load i32, ptr %6, align 4, !tbaa !43
  %23 = and i32 %22, 64512
  %24 = icmp ne i32 %23, 0
  br i1 %24, label %25, label %27

25:                                               ; preds = %21
  %26 = load ptr, ptr %5, align 8, !tbaa !41
  call void (ptr, i32, ptr, ...) @archive_set_error(ptr noundef %26, i32 noundef 22, ptr noundef @.str.35)
  store i32 -25, ptr %4, align 4
  br label %46

27:                                               ; preds = %21
  %28 = load i32, ptr %6, align 4, !tbaa !43
  %29 = and i32 %28, 768
  %30 = icmp eq i32 %29, 0
  br i1 %30, label %31, label %33

31:                                               ; preds = %27
  %32 = load ptr, ptr %5, align 8, !tbaa !41
  call void (ptr, i32, ptr, ...) @archive_set_error(ptr noundef %32, i32 noundef 22, ptr noundef @.str.36)
  store i32 -25, ptr %4, align 4
  br label %46

33:                                               ; preds = %27
  %34 = load i32, ptr %6, align 4, !tbaa !43
  %35 = and i32 %34, 236
  %36 = icmp ne i32 %35, 0
  br i1 %36, label %37, label %39

37:                                               ; preds = %33
  %38 = load ptr, ptr %5, align 8, !tbaa !41
  call void (ptr, i32, ptr, ...) @archive_set_error(ptr noundef %38, i32 noundef 22, ptr noundef @.str.37)
  store i32 -25, ptr %4, align 4
  br label %46

39:                                               ; preds = %33
  %40 = load i32, ptr %6, align 4, !tbaa !43
  %41 = and i32 %40, 19
  %42 = icmp eq i32 %41, 0
  br i1 %42, label %43, label %45

43:                                               ; preds = %39
  %44 = load ptr, ptr %5, align 8, !tbaa !41
  call void (ptr, i32, ptr, ...) @archive_set_error(ptr noundef %44, i32 noundef 22, ptr noundef @.str.38)
  store i32 -25, ptr %4, align 4
  br label %46

45:                                               ; preds = %39
  store i32 0, ptr %4, align 4
  br label %46

46:                                               ; preds = %45, %43, %37, %31, %25, %18
  %47 = load i32, ptr %4, align 4
  ret i32 %47

48:                                               ; preds = %18
  unreachable
}

; Function Attrs: nounwind uwtable
define dso_local i32 @archive_match_include_file_time(ptr noundef %0, i32 noundef %1, ptr noundef %2) #0 {
  %4 = alloca i32, align 4
  %5 = alloca ptr, align 8
  %6 = alloca i32, align 4
  %7 = alloca ptr, align 8
  %8 = alloca i32, align 4
  %9 = alloca i32, align 4
  store ptr %0, ptr %5, align 8, !tbaa !41
  store i32 %1, ptr %6, align 4, !tbaa !43
  store ptr %2, ptr %7, align 8, !tbaa !94
  call void @llvm.lifetime.start.p0(i64 4, ptr %8) #9
  %10 = load ptr, ptr %5, align 8, !tbaa !41
  %11 = load i32, ptr %6, align 4, !tbaa !43
  %12 = call i32 @validate_time_flag(ptr noundef %10, i32 noundef %11, ptr noundef @.str.20)
  store i32 %12, ptr %8, align 4, !tbaa !43
  %13 = load i32, ptr %8, align 4, !tbaa !43
  %14 = icmp ne i32 %13, 0
  br i1 %14, label %15, label %17

15:                                               ; preds = %3
  %16 = load i32, ptr %8, align 4, !tbaa !43
  store i32 %16, ptr %4, align 4
  store i32 1, ptr %9, align 4
  br label %22

17:                                               ; preds = %3
  %18 = load ptr, ptr %5, align 8, !tbaa !41
  %19 = load i32, ptr %6, align 4, !tbaa !43
  %20 = load ptr, ptr %7, align 8, !tbaa !94
  %21 = call i32 @set_timefilter_pathname_mbs(ptr noundef %18, i32 noundef %19, ptr noundef %20)
  store i32 %21, ptr %4, align 4
  store i32 1, ptr %9, align 4
  br label %22

22:                                               ; preds = %17, %15
  call void @llvm.lifetime.end.p0(i64 4, ptr %8) #9
  %23 = load i32, ptr %4, align 4
  ret i32 %23
}