; Function Attrs: nounwind uwtable
define dso_local range(i32 -30, 1) i32 @archive_match_include_file_time(ptr noundef %0, i32 noundef %1, ptr noundef %2) local_unnamed_addr #0 {
  %4 = tail call i32 @__archive_check_magic(ptr noundef %0, i32 noundef 212668873, i32 noundef 1, ptr noundef nonnull @.str.20) #14
  %.not14.i = icmp eq i32 %4, -30
  br i1 %.not14.i, label %validate_time_flag.exit.thread, label %5

5:                                                ; preds = %3
  %6 = and i32 %1, 64512
  %.not.i = icmp eq i32 %6, 0
  br i1 %.not.i, label %7, label %.sink.split.i

7:                                                ; preds = %5
  %8 = and i32 %1, 768
  %9 = icmp eq i32 %8, 0
  br i1 %9, label %.sink.split.i, label %10

10:                                               ; preds = %7
  %11 = and i32 %1, 236
  %.not13.i = icmp eq i32 %11, 0
  br i1 %.not13.i, label %12, label %.sink.split.i

12:                                               ; preds = %10
  %13 = and i32 %1, 19
  %14 = icmp eq i32 %13, 0
  br i1 %14, label %.sink.split.i, label %validate_time_flag.exit

.sink.split.i:                                    ; preds = %12, %10, %7, %5
  %.str.38.sink.i = phi ptr [ @.str.35, %5 ], [ @.str.36, %7 ], [ @.str.37, %10 ], [ @.str.38, %12 ]
  tail call void (ptr, i32, ptr, ...) @archive_set_error(ptr noundef %0, i32 noundef 22, ptr noundef nonnull %.str.38.sink.i) #14
  br label %validate_time_flag.exit.thread

validate_time_flag.exit:                          ; preds = %12
  %15 = tail call fastcc i32 @set_timefilter_pathname_mbs(ptr noundef %0, i32 noundef %1, ptr noundef %2)
  br label %validate_time_flag.exit.thread

validate_time_flag.exit.thread:                   ; preds = %.sink.split.i, %3, %validate_time_flag.exit
  %.0 = phi i32 [ %15, %validate_time_flag.exit ], [ -25, %.sink.split.i ], [ -30, %3 ]
  ret i32 %.0
}